(lp0
ccopy_reg
_reconstructor
p1
(cbank.client
Client
p2
c__builtin__
object
p3
Ntp4
Rp5
(dp6
S'_password'
p7
S'senha'
p8
sS'_account'
p9
g1
(cbank.client
Account
p10
g3
Ntp11
Rp12
(dp13
S'_balance'
p14
I2320
sS'_id'
p15
I1234
sS'_transactions'
p16
(lp17
g1
(cbank.client
Transaction
p18
g3
Ntp19
Rp20
(dp21
S'_value'
p22
I100
sS'_time'
p23
cdatetime
time
p24
(S'\x113\x0f\x08\xdb\x86'
p25
tp26
Rp27
sS'_dst'
p28
I1234
sS'_op'
p29
S'deposit'
p30
sS'_src'
p31
Nsbag1
(g18
g3
Ntp32
Rp33
(dp34
g22
I50
sg23
g24
(S'\x113\x0f\x08\xdb\xc4'
p35
tp36
Rp37
sg28
Nsg29
S'withdraw'
p38
sg31
I1234
sbag1
(g18
g3
Ntp39
Rp40
(dp41
g22
I50
sg23
g24
(S'\x113\x0f\x08\xdb\xea'
p42
tp43
Rp44
sg28
I2341
sg29
S'transfer'
p45
sg31
I1234
sbag1
(g18
g3
Ntp46
Rp47
(dp48
S'_value'
p49
I50
sS'_time'
p50
g24
(S'\x175#\r8\xb7'
p51
tp52
Rp53
sS'_dst'
p54
I1234
sS'_op'
p55
S'deposit'
p56
sS'_src'
p57
Nsbag1
(g18
g3
Ntp58
Rp59
(dp60
S'_value'
p61
I50
sS'_time'
p62
g24
(S'\x16\x16\x06\x0b~`'
p63
tp64
Rp65
sS'_dst'
p66
I1234
sS'_op'
p67
S'deposit'
p68
sS'_src'
p69
Nsbag1
(g18
g3
Ntp70
Rp71
(dp72
S'_value'
p73
I50
sS'_time'
p74
g24
(S'\x16\x18\x0c\x02\x01\xd3'
p75
tp76
Rp77
sS'_dst'
p78
I1234
sS'_op'
p79
S'deposit'
p80
sS'_src'
p81
Nsbag1
(g18
g3
Ntp82
Rp83
(dp84
g73
I30
sg74
g24
(S'\x16\x19*\x08:\xe8'
p85
tp86
Rp87
sg78
Nsg79
S'withdraw'
p88
sg81
I1234
sbag1
(g18
g3
Ntp89
Rp90
(dp91
S'_value'
p92
I100
sS'_time'
p93
g24
(S'\x00\x00\x1a\x02\x15\x05'
p94
tp95
Rp96
sS'_dst'
p97
I1234
sS'_op'
p98
S'deposit'
p99
sS'_src'
p100
Nsbag1
(g18
g3
Ntp101
Rp102
(dp103
g92
I100
sg93
g24
(S'\x00\x08;\x0ek\xd3'
p104
tp105
Rp106
sg97
I1234
sg98
g99
sg100
Nsbag1
(g18
g3
Ntp107
Rp108
(dp109
g92
I100
sg93
g24
(S'\x00\x0b\x02\x08\x99$'
p110
tp111
Rp112
sg97
I1234
sg98
g99
sg100
Nsbag1
(g18
g3
Ntp113
Rp114
(dp115
g92
I10000
sg93
g24
(S'\x00\x0b\t\x02}\xf5'
p116
tp117
Rp118
sg97
I1234
sg98
g99
sg100
Nsbag1
(g18
g3
Ntp119
Rp120
(dp121
g92
I1000
sg93
g24
(S'\x00\x0e\x15\r\xf0\xc7'
p122
tp123
Rp124
sg97
I1234
sg98
g99
sg100
Nsbag1
(g18
g3
Ntp125
Rp126
(dp127
g92
I1000
sg93
g24
(S'\x00\x0e\x1b\x08\xbf\xa1'
p128
tp129
Rp130
sg97
I1234
sg98
g99
sg100
Nsbag1
(g18
g3
Ntp131
Rp132
(dp133
g92
I1000
sg93
g24
(S'\x00\x0e+\x08\xba\xb0'
p134
tp135
Rp136
sg97
Nsg98
S'withdraw'
p137
sg100
I1234
sbag1
(g18
g3
Ntp138
Rp139
(dp140
S'_value'
p141
I10000
sS'_time'
p142
g24
(S'\x00\x107\t\x01#'
p143
tp144
Rp145
sS'_dst'
p146
NsS'_op'
p147
S'withdraw'
p148
sS'_src'
p149
I1234
sbag1
(g18
g3
Ntp150
Rp151
(dp152
g141
I100
sg142
g24
(S'\x00\x12\x1a\n\r]'
p153
tp154
Rp155
sg146
I2341
sg147
S'transfer'
p156
sg149
I1234
sbag1
(g18
g3
Ntp157
Rp158
(dp159
S'_value'
p160
I1000
sS'_time'
p161
g24
(S'\x01\x02\x10\n\xaaF'
p162
tp163
Rp164
sS'_dst'
p165
I1234
sS'_op'
p166
S'deposit'
p167
sS'_src'
p168
NsbasbsS'_name'
p169
S'Jose Maria'
p170
sbag1
(g2
g3
Ntp171
Rp172
(dp173
g7
S'teste'
p174
sg9
g1
(g10
g3
Ntp175
Rp176
(dp177
g14
I150
sg15
I2341
sg16
(lp178
g40
ag151
asbsg169
S'Joao da Vida'
p179
sbag1
(g2
g3
Ntp180
Rp181
(dp182
S'_password'
p183
S'teste'
p184
sS'_account'
p185
g1
(g10
g3
Ntp186
Rp187
(dp188
g14
I0
sg15
I2543
sg16
(lp189
sbsS'_name'
p190
S'Seu Jo\xc3\xa3o'
p191
sba.