(lp0
ccopy_reg
_reconstructor
p1
(cbank.client
Client
p2
c__builtin__
object
p3
Ntp4
Rp5
(dp6
S'_account'
p7
g1
(cbank.client
Account
p8
g3
Ntp9
Rp10
(dp11
S'_balance'
p12
I0
sS'_id'
p13
I1234
sS'_transactions'
p14
(lp15
g1
(cbank.client
Transaction
p16
g3
Ntp17
Rp18
(dp19
S'_value'
p20
I100
sS'_time'
p21
cdatetime
time
p22
(S'\x00)\x16\tq\x8a'
p23
tp24
Rp25
sS'_dst'
p26
I1234
sS'_op'
p27
S'deposit'
p28
sS'_src'
p29
Nsbag1
(g16
g3
Ntp30
Rp31
(dp32
g20
I50
sg21
g22
(S'\x00)\x16\tq\xc6'
p33
tp34
Rp35
sg26
Nsg27
S'withdraw'
p36
sg29
I1234
sbag1
(g16
g3
Ntp37
Rp38
(dp39
g20
I50
sg21
g22
(S'\x00)\x16\tq\xec'
p40
tp41
Rp42
sg26
I2341
sg27
S'transfer'
p43
sg29
I1234
sbasbsS'_name'
p44
S'Jose Maria'
p45
sbag1
(g2
g3
Ntp46
Rp47
(dp48
g7
g1
(g8
g3
Ntp49
Rp50
(dp51
g12
I50
sg13
I2341
sg14
(lp52
g38
asbsg44
S'Joao da Vida'
p53
sba.