(lp0
ccopy_reg
_reconstructor
p1
(cbank.client
Client
p2
c__builtin__
object
p3
Ntp4
Rp5
(dp6
S'_password'
p7
S'senha'
p8
sS'_account'
p9
g1
(cbank.client
Account
p10
g3
Ntp11
Rp12
(dp13
S'_balance'
p14
I3710
sS'_id'
p15
I1234
sS'_transactions'
p16
(lp17
g1
(cbank.client
Transaction
p18
g3
Ntp19
Rp20
(dp21
S'_value'
p22
I100
sS'_time'
p23
cdatetime
time
p24
(S'\x113\x0f\x08\xdb\x86'
p25
tp26
Rp27
sS'_dst'
p28
I1234
sS'_op'
p29
S'deposit'
p30
sS'_src'
p31
Nsbag1
(g18
g3
Ntp32
Rp33
(dp34
g22
I50
sg23
g24
(S'\x113\x0f\x08\xdb\xc4'
p35
tp36
Rp37
sg28
Nsg29
S'withdraw'
p38
sg31
I1234
sbag1
(g18
g3
Ntp39
Rp40
(dp41
g22
I50
sg23
g24
(S'\x113\x0f\x08\xdb\xea'
p42
tp43
Rp44
sg28
I2341
sg29
S'transfer'
p45
sg31
I1234
sbag1
(g18
g3
Ntp46
Rp47
(dp48
S'_value'
p49
I50
sS'_time'
p50
g24
(S'\x175#\r8\xb7'
p51
tp52
Rp53
sS'_dst'
p54
I1234
sS'_op'
p55
S'deposit'
p56
sS'_src'
p57
Nsbag1
(g18
g3
Ntp58
Rp59
(dp60
S'_value'
p61
I50
sS'_time'
p62
g24
(S'\x16\x16\x06\x0b~`'
p63
tp64
Rp65
sS'_dst'
p66
I1234
sS'_op'
p67
S'deposit'
p68
sS'_src'
p69
Nsbag1
(g18
g3
Ntp70
Rp71
(dp72
S'_value'
p73
I50
sS'_time'
p74
g24
(S'\x16\x18\x0c\x02\x01\xd3'
p75
tp76
Rp77
sS'_dst'
p78
I1234
sS'_op'
p79
S'deposit'
p80
sS'_src'
p81
Nsbag1
(g18
g3
Ntp82
Rp83
(dp84
g73
I30
sg74
g24
(S'\x16\x19*\x08:\xe8'
p85
tp86
Rp87
sg78
Nsg79
S'withdraw'
p88
sg81
I1234
sbag1
(g18
g3
Ntp89
Rp90
(dp91
S'_value'
p92
I100
sS'_time'
p93
g24
(S'\x00\x00\x1a\x02\x15\x05'
p94
tp95
Rp96
sS'_dst'
p97
I1234
sS'_op'
p98
S'deposit'
p99
sS'_src'
p100
Nsbag1
(g18
g3
Ntp101
Rp102
(dp103
g92
I100
sg93
g24
(S'\x00\x08;\x0ek\xd3'
p104
tp105
Rp106
sg97
I1234
sg98
g99
sg100
Nsbag1
(g18
g3
Ntp107
Rp108
(dp109
g92
I100
sg93
g24
(S'\x00\x0b\x02\x08\x99$'
p110
tp111
Rp112
sg97
I1234
sg98
g99
sg100
Nsbag1
(g18
g3
Ntp113
Rp114
(dp115
g92
I10000
sg93
g24
(S'\x00\x0b\t\x02}\xf5'
p116
tp117
Rp118
sg97
I1234
sg98
g99
sg100
Nsbag1
(g18
g3
Ntp119
Rp120
(dp121
g92
I1000
sg93
g24
(S'\x00\x0e\x15\r\xf0\xc7'
p122
tp123
Rp124
sg97
I1234
sg98
g99
sg100
Nsbag1
(g18
g3
Ntp125
Rp126
(dp127
g92
I1000
sg93
g24
(S'\x00\x0e\x1b\x08\xbf\xa1'
p128
tp129
Rp130
sg97
I1234
sg98
g99
sg100
Nsbag1
(g18
g3
Ntp131
Rp132
(dp133
g92
I1000
sg93
g24
(S'\x00\x0e+\x08\xba\xb0'
p134
tp135
Rp136
sg97
Nsg98
S'withdraw'
p137
sg100
I1234
sbag1
(g18
g3
Ntp138
Rp139
(dp140
S'_value'
p141
I10000
sS'_time'
p142
g24
(S'\x00\x107\t\x01#'
p143
tp144
Rp145
sS'_dst'
p146
NsS'_op'
p147
S'withdraw'
p148
sS'_src'
p149
I1234
sbag1
(g18
g3
Ntp150
Rp151
(dp152
g141
I100
sg142
g24
(S'\x00\x12\x1a\n\r]'
p153
tp154
Rp155
sg146
I2341
sg147
S'transfer'
p156
sg149
I1234
sbag1
(g18
g3
Ntp157
Rp158
(dp159
S'_value'
p160
I1000
sS'_time'
p161
g24
(S'\x01\x02\x10\n\xaaF'
p162
tp163
Rp164
sS'_dst'
p165
I1234
sS'_op'
p166
S'deposit'
p167
sS'_src'
p168
Nsbag1
(g18
g3
Ntp169
Rp170
(dp171
S'_value'
p172
I1000
sS'_time'
p173
g24
(S'\x0b\r!\tyv'
p174
tp175
Rp176
sS'_dst'
p177
I1234
sS'_op'
p178
S'deposit'
p179
sS'_src'
p180
Nsbag1
(g18
g3
Ntp181
Rp182
(dp183
g172
I50
sg173
g24
(S"\x0b\r'\n\xfd\x84"
p184
tp185
Rp186
sg177
I1234
sg178
g179
sg180
Nsbag1
(g18
g3
Ntp187
Rp188
(dp189
g172
I50
sg173
g24
(S'\x0b\x0e\x16\x04\x97E'
p190
tp191
Rp192
sg177
I1234
sg178
g179
sg180
Nsbag1
(g18
g3
Ntp193
Rp194
(dp195
S'_value'
p196
I10
sS'_time'
p197
g24
(S'\x0b\x13\x1a\x04\xa1\xfb'
p198
tp199
Rp200
sS'_dst'
p201
I1234
sS'_op'
p202
S'deposit'
p203
sS'_src'
p204
Nsbag1
(g18
g3
Ntp205
Rp206
(dp207
S'_value'
p208
I100
sS'_time'
p209
g24
(S'\x0b \x18\x0e#b'
p210
tp211
Rp212
sS'_dst'
p213
I1234
sS'_op'
p214
S'deposit'
p215
sS'_src'
p216
Nsbag1
(g18
g3
Ntp217
Rp218
(dp219
S'_value'
p220
I100
sS'_time'
p221
g24
(S'\x0b,\x1a\x0e\x94{'
p222
tp223
Rp224
sS'_dst'
p225
I1234
sS'_op'
p226
S'deposit'
p227
sS'_src'
p228
Nsbag1
(g18
g3
Ntp229
Rp230
(dp231
S'_value'
p232
I100
sS'_time'
p233
g24
(S'\x0c\x04\x15\t9\xae'
p234
tp235
Rp236
sS'_dst'
p237
I1234
sS'_op'
p238
S'deposit'
p239
sS'_src'
p240
Nsbag1
(g18
g3
Ntp241
Rp242
(dp243
S'_value'
p244
I100
sS'_time'
p245
g24
(S'\x0c\x05"\x08\xddH'
p246
tp247
Rp248
sS'_dst'
p249
I1234
sS'_op'
p250
S'deposit'
p251
sS'_src'
p252
Nsbag1
(g18
g3
Ntp253
Rp254
(dp255
S'_value'
p256
I100
sS'_time'
p257
g24
(S'\x0c\x140\x03\x11\xd3'
p258
tp259
Rp260
sS'_dst'
p261
I1234
sS'_op'
p262
S'deposit'
p263
sS'_src'
p264
Nsbag1
(g18
g3
Ntp265
Rp266
(dp267
S'_value'
p268
I1000
sS'_time'
p269
g24
(S'\x0c\x15\x1d\n\xbe\x19'
p270
tp271
Rp272
sS'_dst'
p273
I1234
sS'_op'
p274
S'deposit'
p275
sS'_src'
p276
Nsbag1
(g18
g3
Ntp277
Rp278
(dp279
S'_value'
p280
I10
sS'_time'
p281
g24
(S'\x0e9\x1c\x08k\x10'
p282
tp283
Rp284
sS'_dst'
p285
I1234
sS'_op'
p286
S'deposit'
p287
sS'_src'
p288
Nsbag1
(g18
g3
Ntp289
Rp290
(dp291
g280
I100
sg281
g24
(S'\x0f\r\x14\n\xdb\xc3'
p292
tp293
Rp294
sg285
I1234
sg286
g287
sg288
Nsbag1
(g18
g3
Ntp295
Rp296
(dp297
S'_value'
p298
I100
sS'_time'
p299
g24
(S'\x0f\x0f\x1b\x00O\xb6'
p300
tp301
Rp302
sS'_dst'
p303
I1234
sS'_op'
p304
S'deposit'
p305
sS'_src'
p306
Nsbag1
(g18
g3
Ntp307
Rp308
(dp309
S'_value'
p310
I100
sS'_time'
p311
g24
(S'\x0f\x12\x02\x07\x04Z'
p312
tp313
Rp314
sS'_dst'
p315
I1234
sS'_op'
p316
S'deposit'
p317
sS'_src'
p318
Nsbag1
(g18
g3
Ntp319
Rp320
(dp321
g310
I100
sg311
g24
(S'\x0f\x13#\x04H#'
p322
tp323
Rp324
sg315
I1234
sg316
g317
sg318
Nsbag1
(g18
g3
Ntp325
Rp326
(dp327
g310
I500
sg311
g24
(S'\x0f\x134\x038\xa6'
p328
tp329
Rp330
sg315
I1234
sg316
g317
sg318
Nsbag1
(g18
g3
Ntp331
Rp332
(dp333
S'_value'
p334
I100
sS'_time'
p335
g24
(S'\x0f\x17\x12\x03\x978'
p336
tp337
Rp338
sS'_dst'
p339
I1234
sS'_op'
p340
S'deposit'
p341
sS'_src'
p342
Nsbag1
(g18
g3
Ntp343
Rp344
(dp345
g334
I150
sg335
g24
(S'\x0f\x187\tcj'
p346
tp347
Rp348
sg339
I1234
sg340
g341
sg342
Nsbag1
(g18
g3
Ntp349
Rp350
(dp351
S'_value'
p352
I100
sS'_time'
p353
g24
(S'\x0f)!\x03\xf4\xe2'
p354
tp355
Rp356
sS'_dst'
p357
I1234
sS'_op'
p358
S'deposit'
p359
sS'_src'
p360
Nsbag1
(g18
g3
Ntp361
Rp362
(dp363
g352
I100
sg353
g24
(S'\x0f.\x1b\x06\x81b'
p364
tp365
Rp366
sg357
I1234
sg358
g359
sg360
Nsbag1
(g18
g3
Ntp367
Rp368
(dp369
g352
I100
sg353
g24
(S'\x0f0-\x0b\xf2S'
p370
tp371
Rp372
sg357
I1234
sg358
g359
sg360
Nsbag1
(g18
g3
Ntp373
Rp374
(dp375
S'_value'
p376
I200
sS'_time'
p377
g24
(S'\x10\x0e8\x0b-?'
p378
tp379
Rp380
sS'_dst'
p381
I1234
sS'_op'
p382
S'deposit'
p383
sS'_src'
p384
Nsbag1
(g18
g3
Ntp385
Rp386
(dp387
S'_value'
p388
I120
sS'_time'
p389
g24
(S'\x10\x0f\x16\x0b\x83\xa0'
p390
tp391
Rp392
sS'_dst'
p393
I1234
sS'_op'
p394
S'deposit'
p395
sS'_src'
p396
Nsbag1
(g18
g3
Ntp397
Rp398
(dp399
S'_value'
p400
I100
sS'_time'
p401
g24
(S'\x10\x10\r\x06d\xfd'
p402
tp403
Rp404
sS'_dst'
p405
I1234
sS'_op'
p406
S'deposit'
p407
sS'_src'
p408
Nsbag1
(g18
g3
Ntp409
Rp410
(dp411
S'_value'
p412
I100
sS'_time'
p413
g24
(S'\x10\x17\x1c\t\xd9|'
p414
tp415
Rp416
sS'_dst'
p417
NsS'_op'
p418
S'withdraw'
p419
sS'_src'
p420
I1234
sbag1
(g18
g3
Ntp421
Rp422
(dp423
S'_value'
p424
I3000
sS'_time'
p425
g24
(S'\x10\x17%\t"m'
p426
tp427
Rp428
sS'_dst'
p429
NsS'_op'
p430
S'withdraw'
p431
sS'_src'
p432
I1234
sbasbsS'_name'
p433
S'Jose Maria'
p434
sbag1
(g2
g3
Ntp435
Rp436
(dp437
g7
S'teste'
p438
sg9
g1
(g10
g3
Ntp439
Rp440
(dp441
g14
I150
sg15
I2341
sg16
(lp442
g40
ag151
asbsg433
S'Joao da Vida'
p443
sbag1
(g2
g3
Ntp444
Rp445
(dp446
S'_password'
p447
S'teste'
p448
sS'_account'
p449
g1
(g10
g3
Ntp450
Rp451
(dp452
g14
I0
sg15
I2543
sg16
(lp453
sbsS'_name'
p454
S'Seu Jo\xc3\xa3o'
p455
sbag1
(cclient
Client
p456
g3
Ntp457
Rp458
(dp459
S'_password'
p460
S'teste'
p461
sS'_account'
p462
g1
(cclient
Account
p463
g3
Ntp464
Rp465
(dp466
g14
I100
sg15
I7788
sg16
(lp467
g1
(cclient
Transaction
p468
g3
Ntp469
Rp470
(dp471
S'_value'
p472
I100
sS'_time'
p473
g24
(S'\x16&\x06\n\xc72'
p474
tp475
Rp476
sS'_dst'
p477
I7788
sS'_op'
p478
S'deposit'
p479
sS'_src'
p480
NsbasbsS'_name'
p481
S'Joao das Neves'
p482
sba.