(lp0
ccopy_reg
_reconstructor
p1
(cbank.client
Client
p2
c__builtin__
object
p3
Ntp4
Rp5
(dp6
S'_password'
p7
S'senha'
p8
sS'_account'
p9
g1
(cbank.client
Account
p10
g3
Ntp11
Rp12
(dp13
S'_balance'
p14
I0
sS'_id'
p15
I1234
sS'_transactions'
p16
(lp17
g1
(cbank.client
Transaction
p18
g3
Ntp19
Rp20
(dp21
S'_value'
p22
I100
sS'_time'
p23
cdatetime
time
p24
(S'\x113\x0f\x08\xdb\x86'
p25
tp26
Rp27
sS'_dst'
p28
I1234
sS'_op'
p29
S'deposit'
p30
sS'_src'
p31
Nsbag1
(g18
g3
Ntp32
Rp33
(dp34
g22
I50
sg23
g24
(S'\x113\x0f\x08\xdb\xc4'
p35
tp36
Rp37
sg28
Nsg29
S'withdraw'
p38
sg31
I1234
sbag1
(g18
g3
Ntp39
Rp40
(dp41
g22
I50
sg23
g24
(S'\x113\x0f\x08\xdb\xea'
p42
tp43
Rp44
sg28
I2341
sg29
S'transfer'
p45
sg31
I1234
sbasbsS'_name'
p46
S'Jose Maria'
p47
sbag1
(g2
g3
Ntp48
Rp49
(dp50
g7
S'teste'
p51
sg9
g1
(g10
g3
Ntp52
Rp53
(dp54
g14
I50
sg15
I2341
sg16
(lp55
g40
asbsg46
S'Joao da Vida'
p56
sba.