ccopy_reg
_reconstructor
p0
(cuser
User
p1
c__builtin__
object
p2
Ntp3
Rp4
(dp5
S'_bank_account'
p6
g0
(cuser
BankAccount
p7
g2
Ntp8
Rp9
(dp10
S'_password'
p11
S'senha'
p12
sS'_id'
p13
I1234
sbsg11
S'senha'
p14
sS'_name'
p15
S'joao'
p16
sb.