ccopy_reg
_reconstructor
p0
(cwallet.user
User
p1
c__builtin__
object
p2
Ntp3
Rp4
(dp5
S'_bank_account'
p6
g0
(cwallet.user
BankAccount
p7
g2
Ntp8
Rp9
(dp10
S'_password'
p11
S'senha'
p12
sS'_id'
p13
I1234
sbsg11
S'12345'
p14
sS'_name'
p15
S'Freddie'
p16
sb.